Certificate:
    Data:
        Version: 3 (0x2)
        Serial Number:
            ed:31:db:c8:0d:6d:db:dc:33:36:7c:62:05:47:d4:8b
    Signature Algorithm: sha256WithRSAEncryption
        Issuer: C=US, ST=US, O=Mother Nature
        Validity
            Not Before: Dec 23 10:45:59 2020 GMT
            Not After : Dec 23 10:45:59 2021 GMT
        Subject: C=US, ST=US, O=Mother Nature
        Subject Public Key Info:
            Public Key Algorithm: rsaEncryption
                Public-Key: (2048 bit)
                Modulus:
                    00:eb:e1:a0:43:57:5a:a3:8d:6d:27:95:28:d6:a3:
                    ad:3e:87:1a:e8:37:47:f4:0b:4f:61:2c:e9:e5:e5:
                    e5:2a:35:7a:2f:4a:b5:14:50:7b:27:aa:86:68:d1:
                    7d:24:5e:08:50:f7:e4:fc:8d:92:d0:24:71:2f:f4:
                    d4:56:e3:6f:73:7b:63:05:86:89:b8:0e:1d:b5:4c:
                    78:22:91:bc:ff:d1:80:e0:ea:30:d3:63:46:d5:8f:
                    28:94:9a:6d:a7:5e:67:46:27:46:06:95:49:cb:59:
                    ce:e6:c8:18:7d:d6:1f:55:88:a5:e3:83:cc:f5:73:
                    a5:b8:9c:ac:c7:31:5b:2b:f4:b0:d6:6a:da:19:87:
                    3e:95:3e:01:a1:bf:11:20:60:41:cc:a4:c5:ca:a6:
                    f2:f0:8d:5f:ea:1f:4a:bc:a8:b2:a2:5f:0d:a3:2e:
                    0b:6f:cb:7d:b4:48:e6:23:39:3d:6d:47:7b:4d:b3:
                    ca:15:c2:ff:7a:1f:a6:41:e3:c7:9b:24:5f:1e:a9:
                    af:93:b9:86:b2:cf:ed:d2:73:43:9f:d0:0b:fa:dc:
                    99:a1:f1:48:39:a4:56:95:05:85:3d:5a:dc:64:06:
                    20:67:9f:e8:0d:cb:30:b7:a0:2c:15:78:42:fc:e4:
                    b1:b3:9f:ad:be:35:e9:ca:ef:4b:20:92:a2:74:86:
                    8a:09
                Exponent: 65537 (0x10001)
        X509v3 extensions:
            X509v3 Key Usage: critical
                Digital Signature, Key Encipherment
            X509v3 Extended Key Usage: 
                TLS Web Server Authentication
            X509v3 Basic Constraints: critical
                CA:FALSE
            X509v3 Subject Alternative Name: 
                DNS:gov.us
    Signature Algorithm: sha256WithRSAEncryption
         7b:78:8a:57:75:c5:0b:49:f7:37:ca:8e:ad:6e:7e:70:88:f7:
         2f:0e:35:11:42:a4:88:bc:59:a5:dc:60:85:67:a7:db:6b:b3:
         12:b7:1a:4f:ad:3f:58:e6:57:a9:b1:14:0c:1c:b4:bb:76:5e:
         c5:da:bf:6f:6a:d0:04:a1:7b:25:b6:a1:a0:82:05:eb:4e:93:
         0b:3c:c6:34:5c:e1:b4:06:52:33:df:d1:9f:9f:e6:05:c6:be:
         c0:4c:70:ae:3c:7e:80:e7:87:25:7d:ae:1d:c0:e8:9c:eb:c0:
         16:f8:ab:0a:84:16:ab:3e:33:29:92:47:b2:4a:d0:00:f7:5d:
         8a:e7:47:7a:92:ff:02:49:c3:2d:0f:65:b6:69:91:7d:17:88:
         96:79:13:65:6e:56:4f:e5:8e:4d:15:b4:0e:0a:0f:78:1a:13:
         5d:5f:86:32:19:2f:ce:34:9d:0a:4c:36:f6:e9:2a:a7:aa:d5:
         e9:35:d2:4b:00:0b:b5:7d:99:18:2a:68:2e:a0:9f:96:c4:fe:
         96:65:5b:80:48:c5:ab:11:0d:fb:80:2c:74:85:cb:de:37:41:
         30:c2:7d:40:5b:00:35:05:24:9f:f1:21:3f:c2:ec:2d:ef:84:
         a3:fa:00:97:36:02:a4:90:69:60:7a:c1:71:e0:f5:69:6b:c7:
         91:7e:f3:e3
-----BEGIN CERTIFICATE-----
MIIDNzCCAh+gAwIBAgIRAO0x28gNbdvcMzZ8YgVH1IswDQYJKoZIhvcNAQELBQAw
MjELMAkGA1UEBhMCVVMxCzAJBgNVBAgTAlVTMRYwFAYDVQQKEw1Nb3RoZXIgTmF0
dXJlMB4XDTIwMTIyMzEwNDU1OVoXDTIxMTIyMzEwNDU1OVowMjELMAkGA1UEBhMC
VVMxCzAJBgNVBAgTAlVTMRYwFAYDVQQKEw1Nb3RoZXIgTmF0dXJlMIIBIjANBgkq
hkiG9w0BAQEFAAOCAQ8AMIIBCgKCAQEA6+GgQ1dao41tJ5Uo1qOtPoca6DdH9AtP
YSzp5eXlKjV6L0q1FFB7J6qGaNF9JF4IUPfk/I2S0CRxL/TUVuNvc3tjBYaJuA4d
tUx4IpG8/9GA4Oow02NG1Y8olJptp15nRidGBpVJy1nO5sgYfdYfVYil44PM9XOl
uJysxzFbK/Sw1mraGYc+lT4Bob8RIGBBzKTFyqby8I1f6h9KvKiyol8Noy4Lb8t9
tEjmIzk9bUd7TbPKFcL/eh+mQePHmyRfHqmvk7mGss/t0nNDn9AL+tyZofFIOaRW
lQWFPVrcZAYgZ5/oDcswt6AsFXhC/OSxs5+tvjXpyu9LIJKidIaKCQIDAQABo0gw
RjAOBgNVHQ8BAf8EBAMCBaAwEwYDVR0lBAwwCgYIKwYBBQUHAwEwDAYDVR0TAQH/
BAIwADARBgNVHREECjAIggZnb3YudXMwDQYJKoZIhvcNAQELBQADggEBAHt4ild1
xQtJ9zfKjq1ufnCI9y8ONRFCpIi8WaXcYIVnp9trsxK3Gk+tP1jmV6mxFAwctLt2
XsXav29q0ASheyW2oaCCBetOkws8xjRc4bQGUjPf0Z+f5gXGvsBMcK48foDnhyV9
rh3A6JzrwBb4qwqEFqs+MymSR7JK0AD3XYrnR3qS/wJJwy0PZbZpkX0XiJZ5E2Vu
Vk/ljk0VtA4KD3gaE11fhjIZL840nQpMNvbpKqeq1ek10ksAC7V9mRgqaC6gn5bE
/pZlW4BIxasRDfuALHSFy943QTDCfUBbADUFJJ/xIT/C7C3vhKP6AJc2AqSQaWB6
wXHg9Wlrx5F+8+M=
-----END CERTIFICATE-----
