Certificate:
    Data:
        Version: 3 (0x2)
        Serial Number:
            98:c4:cf:d7:dc:88:b3:fb:ff:a5:6f:bd:bf:e2:11:e9
    Signature Algorithm: sha256WithRSAEncryption
        Issuer: C=US, ST=FL, O=Mother Nature
        Validity
            Not Before: Dec 23 10:46:27 2020 GMT
            Not After : Dec 23 10:46:27 2021 GMT
        Subject: C=US, ST=FL, O=Mother Nature
        Subject Public Key Info:
            Public Key Algorithm: rsaEncryption
                Public-Key: (2048 bit)
                Modulus:
                    00:ce:46:9b:0a:60:43:bc:63:51:fd:11:19:e3:ff:
                    5b:4d:4e:67:d2:b3:be:83:f6:9e:14:db:f1:56:db:
                    40:49:3b:48:62:b7:6e:1f:d5:84:e9:8f:e7:98:1a:
                    35:67:e9:90:64:71:f7:c2:60:d3:f5:17:32:0d:8b:
                    1e:31:21:9d:2b:23:9f:23:28:f6:6a:d6:30:ae:94:
                    b7:de:71:59:4a:66:c5:d6:b7:e5:70:e7:ed:7a:74:
                    ce:5d:80:67:2c:93:9c:6b:e8:14:2e:e2:fb:26:f8:
                    f6:41:e6:c5:73:5f:90:59:b2:72:5d:e6:eb:75:44:
                    96:25:6f:7c:96:e4:21:08:a1:e1:60:8b:38:1b:e7:
                    a7:0c:2a:83:e2:6a:43:bd:fe:f4:4b:9f:23:1f:db:
                    dd:26:21:96:e1:64:c2:c5:10:1d:92:02:fb:0f:f7:
                    1a:6d:fc:29:f6:6e:ba:15:e1:96:9d:56:d0:95:2e:
                    00:c9:a1:ec:08:cd:58:ff:ef:5a:f7:9a:88:99:0c:
                    e3:24:62:e8:98:75:8a:71:0a:7c:aa:ff:54:a8:77:
                    3d:f9:90:bc:66:c6:ac:5f:56:3e:89:be:27:f2:04:
                    44:15:e4:34:4c:fb:ab:cb:64:8d:fe:89:5c:34:bf:
                    3b:9e:f5:4f:f9:8d:2c:c1:79:0d:d7:3d:a6:4b:75:
                    5b:8b
                Exponent: 65537 (0x10001)
        X509v3 extensions:
            X509v3 Key Usage: critical
                Digital Signature, Key Encipherment
            X509v3 Extended Key Usage: 
                TLS Web Server Authentication
            X509v3 Basic Constraints: critical
                CA:FALSE
            X509v3 Subject Alternative Name: 
                DNS:gov.us
    Signature Algorithm: sha256WithRSAEncryption
         97:06:57:a9:b3:58:17:41:cd:8a:6e:8c:f8:70:ea:70:1c:07:
         ba:78:03:73:3a:d1:ac:da:a4:9b:df:b1:60:bb:b1:3f:4c:93:
         60:4a:70:03:11:6f:09:ea:a9:12:22:1b:05:e5:8b:41:bc:fd:
         68:64:aa:6d:fc:b6:f2:5d:1a:34:10:aa:37:a0:16:53:96:0c:
         c8:89:04:da:45:c1:b6:bd:25:99:66:1b:6a:01:a1:a4:5b:3f:
         88:b3:38:7a:4e:ba:6d:3e:1e:b6:3e:af:87:76:00:94:50:b4:
         db:f8:fd:7a:94:f0:9a:90:f7:78:f1:3c:50:87:24:aa:29:d3:
         57:27:7d:72:17:de:d7:43:22:a1:39:f9:fe:aa:c4:ec:29:86:
         74:b9:62:5d:88:49:d6:3b:80:58:bb:d5:59:27:b3:c1:f0:73:
         fa:03:79:af:f2:5c:36:7f:b9:c2:0c:a0:84:df:91:bf:42:f6:
         ea:64:e0:af:17:71:4f:2c:9f:f6:f7:e2:37:3b:b3:a4:0f:ea:
         0d:17:b9:04:2f:a5:8f:e9:db:29:8d:c7:ff:1a:34:dc:4a:6f:
         f9:1f:ca:43:92:7c:d1:16:74:0e:9f:b9:e7:39:f0:7c:a0:f6:
         69:c2:52:0e:a8:7b:a4:a1:0e:a4:7b:b3:b7:16:13:1a:3e:31:
         d8:e3:e9:0f
-----BEGIN CERTIFICATE-----
MIIDNzCCAh+gAwIBAgIRAJjEz9fciLP7/6Vvvb/iEekwDQYJKoZIhvcNAQELBQAw
MjELMAkGA1UEBhMCVVMxCzAJBgNVBAgTAkZMMRYwFAYDVQQKEw1Nb3RoZXIgTmF0
dXJlMB4XDTIwMTIyMzEwNDYyN1oXDTIxMTIyMzEwNDYyN1owMjELMAkGA1UEBhMC
VVMxCzAJBgNVBAgTAkZMMRYwFAYDVQQKEw1Nb3RoZXIgTmF0dXJlMIIBIjANBgkq
hkiG9w0BAQEFAAOCAQ8AMIIBCgKCAQEAzkabCmBDvGNR/REZ4/9bTU5n0rO+g/ae
FNvxVttASTtIYrduH9WE6Y/nmBo1Z+mQZHH3wmDT9RcyDYseMSGdKyOfIyj2atYw
rpS33nFZSmbF1rflcOftenTOXYBnLJOca+gULuL7Jvj2QebFc1+QWbJyXebrdUSW
JW98luQhCKHhYIs4G+enDCqD4mpDvf70S58jH9vdJiGW4WTCxRAdkgL7D/cabfwp
9m66FeGWnVbQlS4AyaHsCM1Y/+9a95qImQzjJGLomHWKcQp8qv9UqHc9+ZC8Zsas
X1Y+ib4n8gREFeQ0TPury2SN/olcNL87nvVP+Y0swXkN1z2mS3VbiwIDAQABo0gw
RjAOBgNVHQ8BAf8EBAMCBaAwEwYDVR0lBAwwCgYIKwYBBQUHAwEwDAYDVR0TAQH/
BAIwADARBgNVHREECjAIggZnb3YudXMwDQYJKoZIhvcNAQELBQADggEBAJcGV6mz
WBdBzYpujPhw6nAcB7p4A3M60azapJvfsWC7sT9Mk2BKcAMRbwnqqRIiGwXli0G8
/Whkqm38tvJdGjQQqjegFlOWDMiJBNpFwba9JZlmG2oBoaRbP4izOHpOum0+HrY+
r4d2AJRQtNv4/XqU8JqQ93jxPFCHJKop01cnfXIX3tdDIqE5+f6qxOwphnS5Yl2I
SdY7gFi71Vkns8Hwc/oDea/yXDZ/ucIMoITfkb9C9upk4K8XcU8sn/b34jc7s6QP
6g0XuQQvpY/p2ymNx/8aNNxKb/kfykOSfNEWdA6fuec58Hyg9mnCUg6oe6ShDqR7
s7cWExo+Mdjj6Q8=
-----END CERTIFICATE-----
