Certificate:
    Data:
        Version: 3 (0x2)
        Serial Number:
            41:08:61:c7:20:d9:49:74:4b:ba:da:55:21:d2:f7:26
    Signature Algorithm: sha256WithRSAEncryption
        Issuer: C=NL, ST=Florida, O=Mother Nature
        Validity
            Not Before: Dec 23 10:46:58 2020 GMT
            Not After : Dec 23 10:46:58 2021 GMT
        Subject: C=NL, ST=Florida, O=Mother Nature
        Subject Public Key Info:
            Public Key Algorithm: rsaEncryption
                Public-Key: (2048 bit)
                Modulus:
                    00:d9:77:9b:5c:bc:78:2d:43:ef:3b:d9:4b:00:d9:
                    6f:11:02:01:d3:b2:81:e8:ea:51:3f:2c:53:2f:37:
                    65:66:09:92:31:42:df:ea:7e:96:59:b8:f1:7d:da:
                    ea:9e:32:05:fe:ec:93:97:4c:10:58:68:63:e1:da:
                    14:55:15:e8:35:16:34:78:2a:61:87:93:87:c8:d4:
                    e3:54:e9:22:e0:40:f2:bd:93:77:30:d8:47:17:c2:
                    e7:05:ac:a6:cb:fb:fa:88:2a:34:9a:25:ee:fb:99:
                    32:6d:48:74:6d:86:66:f9:6c:5f:cb:34:72:b9:50:
                    79:c3:73:17:b6:c1:7f:4c:9a:a1:79:a4:fc:fe:0d:
                    4d:e2:ca:9e:94:33:11:64:a2:40:f0:cf:72:cf:56:
                    7d:1f:4a:41:af:90:3e:f2:81:18:02:c9:f1:36:99:
                    e1:9f:c2:30:a0:59:a2:04:d7:3a:f4:c9:6e:ec:8b:
                    64:dc:7c:e6:66:fe:95:3b:c0:38:49:cf:48:62:55:
                    f9:4e:06:e4:71:08:7b:82:41:32:f8:a6:fc:25:d6:
                    cf:2d:e6:b3:ce:58:9b:d9:b8:e5:5b:70:da:6e:38:
                    1a:b5:78:dc:11:06:bd:b9:8b:49:36:4d:8a:1c:2f:
                    78:8a:6b:c2:fc:f8:9e:4f:8e:e0:0d:32:f8:7d:f6:
                    6d:8d
                Exponent: 65537 (0x10001)
        X509v3 extensions:
            X509v3 Key Usage: critical
                Digital Signature, Key Encipherment
            X509v3 Extended Key Usage: 
                TLS Web Server Authentication
            X509v3 Basic Constraints: critical
                CA:FALSE
            X509v3 Subject Alternative Name: 
                DNS:gov.us
    Signature Algorithm: sha256WithRSAEncryption
         9f:73:3c:c0:96:48:f5:f2:74:66:4d:8b:ad:05:45:e5:e1:04:
         e0:00:ff:83:20:15:93:90:8c:eb:8a:2b:ba:05:66:11:de:b5:
         ed:15:3d:e5:6c:48:4a:aa:e5:ba:a8:0e:26:b8:73:a4:de:45:
         7f:67:f6:b7:d2:af:8d:41:e8:24:fe:e4:99:b0:14:4f:ad:f4:
         50:c5:3f:56:8d:96:c4:ab:f1:64:63:5d:0c:9e:06:00:d7:8c:
         00:d6:07:b3:fb:b0:16:bb:6f:29:b0:b7:22:f9:f4:ac:84:ed:
         e2:cf:36:5a:23:8b:cf:79:22:30:32:c4:3f:e1:db:d4:94:59:
         bc:9b:a6:8a:20:16:80:3c:6a:f3:1d:d0:bc:bd:d7:d2:89:fc:
         20:0b:43:3d:49:3a:99:20:d7:d6:37:02:ae:0f:f8:f1:da:a3:
         74:95:7f:5e:c4:86:43:0c:76:1a:20:67:72:0b:d2:c8:81:1a:
         62:92:78:c7:1a:68:fc:0a:11:37:ce:e7:f3:ec:16:a1:7d:7a:
         1d:93:d8:8b:fe:4f:b7:9c:ac:c4:66:9f:19:4d:3c:13:69:34:
         3d:34:26:13:32:5d:8e:eb:66:51:0f:8b:0b:7c:0b:30:17:21:
         57:66:30:12:28:34:d8:5f:7b:7c:9d:a8:b4:6f:e0:b1:bb:fd:
         10:69:0f:a3
-----BEGIN CERTIFICATE-----
MIIDQDCCAiigAwIBAgIQQQhhxyDZSXRLutpVIdL3JjANBgkqhkiG9w0BAQsFADA3
MQswCQYDVQQGEwJOTDEQMA4GA1UECBMHRmxvcmlkYTEWMBQGA1UEChMNTW90aGVy
IE5hdHVyZTAeFw0yMDEyMjMxMDQ2NThaFw0yMTEyMjMxMDQ2NThaMDcxCzAJBgNV
BAYTAk5MMRAwDgYDVQQIEwdGbG9yaWRhMRYwFAYDVQQKEw1Nb3RoZXIgTmF0dXJl
MIIBIjANBgkqhkiG9w0BAQEFAAOCAQ8AMIIBCgKCAQEA2XebXLx4LUPvO9lLANlv
EQIB07KB6OpRPyxTLzdlZgmSMULf6n6WWbjxfdrqnjIF/uyTl0wQWGhj4doUVRXo
NRY0eCphh5OHyNTjVOki4EDyvZN3MNhHF8LnBaymy/v6iCo0miXu+5kybUh0bYZm
+WxfyzRyuVB5w3MXtsF/TJqheaT8/g1N4sqelDMRZKJA8M9yz1Z9H0pBr5A+8oEY
AsnxNpnhn8IwoFmiBNc69Mlu7Itk3HzmZv6VO8A4Sc9IYlX5TgbkcQh7gkEy+Kb8
JdbPLeazzlib2bjlW3DabjgatXjcEQa9uYtJNk2KHC94imvC/PieT47gDTL4ffZt
jQIDAQABo0gwRjAOBgNVHQ8BAf8EBAMCBaAwEwYDVR0lBAwwCgYIKwYBBQUHAwEw
DAYDVR0TAQH/BAIwADARBgNVHREECjAIggZnb3YudXMwDQYJKoZIhvcNAQELBQAD
ggEBAJ9zPMCWSPXydGZNi60FReXhBOAA/4MgFZOQjOuKK7oFZhHete0VPeVsSEqq
5bqoDia4c6TeRX9n9rfSr41B6CT+5JmwFE+t9FDFP1aNlsSr8WRjXQyeBgDXjADW
B7P7sBa7bymwtyL59KyE7eLPNloji895IjAyxD/h29SUWbybpoogFoA8avMd0Ly9
19KJ/CALQz1JOpkg19Y3Aq4P+PHao3SVf17EhkMMdhogZ3IL0siBGmKSeMcaaPwK
ETfO5/PsFqF9eh2T2Iv+T7ecrMRmnxlNPBNpND00JhMyXY7rZlEPiwt8CzAXIVdm
MBIoNNhfe3ydqLRv4LG7/RBpD6M=
-----END CERTIFICATE-----
