Certificate:
    Data:
        Version: 3 (0x2)
        Serial Number:
            7d:22:41:c9:fc:6e:46:ab:ac:34:45:f2:5c:53:34:44
    Signature Algorithm: sha256WithRSAEncryption
        Issuer: C=US, ST=US-FL, O=Mother Nature
        Validity
            Not Before: Dec 23 10:46:10 2020 GMT
            Not After : Dec 23 10:46:10 2021 GMT
        Subject: C=US, ST=US-FL, O=Mother Nature
        Subject Public Key Info:
            Public Key Algorithm: rsaEncryption
                Public-Key: (2048 bit)
                Modulus:
                    00:b8:94:a6:dd:db:0d:aa:91:a2:9a:11:68:6a:f0:
                    3b:5a:09:35:50:b4:5a:fb:5f:70:4d:19:b6:da:10:
                    f5:51:d4:10:fa:26:44:8d:40:cf:b4:6e:03:f9:46:
                    c3:d6:50:4c:2d:87:7a:49:aa:ce:f6:e0:93:83:9c:
                    80:1a:a7:75:a2:66:05:77:54:08:ad:cc:40:d6:34:
                    50:39:a0:34:2b:fd:23:f2:d0:c0:ab:ce:30:d4:8f:
                    e0:40:f4:48:47:31:79:3f:b9:18:e8:69:9b:c5:19:
                    c9:80:59:ce:5c:29:39:40:0b:11:7d:4c:77:ce:f1:
                    36:d3:0a:d5:16:34:71:32:cb:b9:d1:86:e8:9f:17:
                    10:10:87:7e:0a:c1:aa:ad:c6:53:3a:81:90:8f:e6:
                    f9:54:c9:11:41:71:e4:75:c5:ed:eb:19:03:e6:09:
                    03:d0:37:7c:07:73:79:96:1c:de:18:a5:17:dd:2f:
                    cd:f7:31:08:d9:63:75:cb:a2:da:5d:1a:da:ff:83:
                    d2:ee:52:b1:dd:c7:a3:44:9f:49:90:1a:8c:1f:e9:
                    94:d2:ff:e2:bc:49:9b:c2:86:46:9b:c6:be:a2:b9:
                    94:d7:6d:f9:76:8b:a2:11:93:42:bf:8b:31:38:1f:
                    a9:3f:7a:dc:a8:c7:29:46:c7:44:20:2b:c6:cf:3a:
                    8b:47
                Exponent: 65537 (0x10001)
        X509v3 extensions:
            X509v3 Key Usage: critical
                Digital Signature, Key Encipherment
            X509v3 Extended Key Usage: 
                TLS Web Server Authentication
            X509v3 Basic Constraints: critical
                CA:FALSE
            X509v3 Subject Alternative Name: 
                DNS:gov.us
    Signature Algorithm: sha256WithRSAEncryption
         35:d6:43:de:6f:c5:11:c6:c9:2c:69:66:1c:0b:04:3c:eb:9b:
         6c:02:65:13:9d:94:0c:df:5a:95:e7:bf:a1:9e:ff:41:34:25:
         6b:02:3b:02:e7:a2:c7:12:8b:94:93:c4:91:c7:70:21:2c:d1:
         91:0c:f7:01:6d:4a:06:a1:e4:75:e5:9e:d6:f5:f5:b7:46:a1:
         cc:6e:af:9a:f7:e7:6f:80:7c:4e:91:65:46:0f:c9:37:1d:53:
         4d:c2:b7:ae:02:28:eb:c3:b5:93:75:32:50:8c:9a:60:e3:73:
         a7:53:38:e3:d5:76:69:df:99:bf:1a:a0:f9:65:76:3b:45:a1:
         29:64:d6:c0:8e:f9:0c:46:ca:ec:f3:15:2b:d0:e1:4b:55:ee:
         7e:ef:78:dc:39:7f:89:26:57:5f:99:a6:96:a0:19:af:7d:8e:
         0a:c7:b8:87:f7:89:0e:b6:bd:6c:f6:31:60:4b:71:45:76:92:
         06:5e:c1:e7:9b:02:f1:46:24:7f:2c:3b:3a:e4:bf:81:cf:07:
         c3:4c:66:51:d0:5b:96:08:ad:a4:04:cc:02:84:b8:67:64:27:
         b8:3d:08:63:6c:50:aa:66:e1:9f:70:ab:30:fe:2a:0b:88:1c:
         6d:3f:ac:f2:b0:14:94:0a:d0:b0:6a:1a:9c:c3:be:90:a3:ed:
         66:64:45:85
-----BEGIN CERTIFICATE-----
MIIDPDCCAiSgAwIBAgIQfSJByfxuRqusNEXyXFM0RDANBgkqhkiG9w0BAQsFADA1
MQswCQYDVQQGEwJVUzEOMAwGA1UECBMFVVMtRkwxFjAUBgNVBAoTDU1vdGhlciBO
YXR1cmUwHhcNMjAxMjIzMTA0NjEwWhcNMjExMjIzMTA0NjEwWjA1MQswCQYDVQQG
EwJVUzEOMAwGA1UECBMFVVMtRkwxFjAUBgNVBAoTDU1vdGhlciBOYXR1cmUwggEi
MA0GCSqGSIb3DQEBAQUAA4IBDwAwggEKAoIBAQC4lKbd2w2qkaKaEWhq8DtaCTVQ
tFr7X3BNGbbaEPVR1BD6JkSNQM+0bgP5RsPWUEwth3pJqs724JODnIAap3WiZgV3
VAitzEDWNFA5oDQr/SPy0MCrzjDUj+BA9EhHMXk/uRjoaZvFGcmAWc5cKTlACxF9
THfO8TbTCtUWNHEyy7nRhuifFxAQh34KwaqtxlM6gZCP5vlUyRFBceR1xe3rGQPm
CQPQN3wHc3mWHN4YpRfdL833MQjZY3XLotpdGtr/g9LuUrHdx6NEn0mQGowf6ZTS
/+K8SZvChkabxr6iuZTXbfl2i6IRk0K/izE4H6k/etyoxylGx0QgK8bPOotHAgMB
AAGjSDBGMA4GA1UdDwEB/wQEAwIFoDATBgNVHSUEDDAKBggrBgEFBQcDATAMBgNV
HRMBAf8EAjAAMBEGA1UdEQQKMAiCBmdvdi51czANBgkqhkiG9w0BAQsFAAOCAQEA
NdZD3m/FEcbJLGlmHAsEPOubbAJlE52UDN9alee/oZ7/QTQlawI7AueixxKLlJPE
kcdwISzRkQz3AW1KBqHkdeWe1vX1t0ahzG6vmvfnb4B8TpFlRg/JNx1TTcK3rgIo
68O1k3UyUIyaYONzp1M449V2ad+Zvxqg+WV2O0WhKWTWwI75DEbK7PMVK9DhS1Xu
fu943Dl/iSZXX5mmlqAZr32OCse4h/eJDra9bPYxYEtxRXaSBl7B55sC8UYkfyw7
OuS/gc8Hw0xmUdBblgitpATMAoS4Z2QnuD0IY2xQqmbhn3CrMP4qC4gcbT+s8rAU
lArQsGoanMO+kKPtZmRFhQ==
-----END CERTIFICATE-----
