Certificate:
    Data:
        Version: 3 (0x2)
        Serial Number:
            6c:3c:83:d1:4b:52:6b:bc:8d:72:56:d7:c7:2e:65:98
    Signature Algorithm: sha256WithRSAEncryption
        Issuer: C=US, ST=Florida, O=Mother Nature
        Validity
            Not Before: Dec 23 10:44:21 2020 GMT
            Not After : Dec 23 10:44:21 2021 GMT
        Subject: C=US, ST=Florida, O=Mother Nature
        Subject Public Key Info:
            Public Key Algorithm: rsaEncryption
                Public-Key: (2048 bit)
                Modulus:
                    00:c9:5f:a3:91:92:1b:29:d4:42:e0:bd:a0:01:44:
                    9e:92:8c:bc:9f:81:fc:fe:70:38:fa:2a:a5:45:b5:
                    30:9e:e4:24:45:ce:4f:4c:7f:c3:4b:5f:2e:8e:97:
                    81:1d:7e:40:de:9e:38:8f:4e:43:1d:f7:5d:33:73:
                    2b:3d:98:66:8d:76:bc:40:3f:bd:a7:c7:cf:9a:9b:
                    31:66:b0:1f:f6:3c:51:bf:ab:a4:b0:7b:48:08:88:
                    53:cf:f4:3b:a3:7d:7a:e2:d5:fa:0a:d5:28:59:a3:
                    4a:02:79:43:0f:40:3f:e7:1d:b3:e5:00:e7:97:9a:
                    b5:d9:f5:d6:d6:47:12:85:e6:0c:79:1e:7d:d2:2a:
                    c1:20:e5:bd:75:6b:08:37:82:fa:58:e5:1d:94:a4:
                    cb:db:74:22:42:ec:16:41:6d:4e:14:3d:e4:73:f3:
                    40:0a:ae:51:36:80:6b:2c:bb:62:01:6b:5f:33:63:
                    2a:a5:b3:f4:db:61:94:28:1a:ec:53:88:ec:02:22:
                    0a:c8:fc:9e:17:b2:dd:63:e8:6c:3b:c8:99:3e:f4:
                    01:89:ce:cc:f2:3e:73:59:b9:bd:5c:88:d9:e2:fc:
                    d6:07:51:0c:73:a3:ea:04:32:f8:96:5c:d3:7a:ac:
                    53:7b:35:b7:07:4b:f3:a7:fc:8d:c5:35:26:dd:cd:
                    35:93
                Exponent: 65537 (0x10001)
        X509v3 extensions:
            X509v3 Key Usage: critical
                Digital Signature, Key Encipherment
            X509v3 Extended Key Usage: 
                TLS Web Server Authentication
            X509v3 Basic Constraints: critical
                CA:FALSE
            X509v3 Subject Alternative Name: 
                DNS:gov.us
    Signature Algorithm: sha256WithRSAEncryption
         ad:07:f2:fe:cf:fc:5c:84:39:38:fc:b6:a4:99:7c:0c:ba:5f:
         c3:d5:fb:d6:04:e9:76:1f:c3:94:48:c5:98:88:b4:02:cc:21:
         38:e3:1b:1a:98:27:ef:72:95:7e:9d:18:34:19:12:4e:e5:8e:
         f8:52:ed:91:75:68:35:75:d2:e7:48:8f:72:57:be:3a:df:43:
         de:26:81:82:4a:0b:47:0b:87:62:b3:41:08:a3:c4:a8:28:1a:
         6d:38:5a:9d:81:eb:e0:7a:d4:a0:9a:a9:8c:1e:e9:57:91:9f:
         c5:84:63:eb:c7:71:98:f6:3d:eb:40:fb:a6:99:9a:3f:2a:73:
         7d:2d:e9:14:69:c0:1d:36:74:b0:59:fa:91:aa:84:99:8e:67:
         39:3b:83:8d:e5:46:ab:8d:dd:f1:a3:aa:dc:e5:d9:31:ca:8e:
         5a:d8:f5:fe:12:ea:ba:6c:d1:7d:24:0a:c7:2f:e5:ca:d8:7f:
         ab:0d:d8:2a:06:f1:2d:ce:c3:9c:05:ca:3b:1a:c0:a2:82:bb:
         8f:81:fd:e9:ae:08:31:f1:48:cb:b5:e9:f1:e8:6b:3e:7f:15:
         ae:d5:95:3a:5f:c3:03:8d:64:5a:00:c7:f7:f1:70:2d:05:33:
         e1:51:ec:78:db:83:11:c7:75:a5:22:71:59:1b:60:46:99:3c:
         54:f9:de:8f
-----BEGIN CERTIFICATE-----
MIIDQDCCAiigAwIBAgIQbDyD0UtSa7yNclbXxy5lmDANBgkqhkiG9w0BAQsFADA3
MQswCQYDVQQGEwJVUzEQMA4GA1UECBMHRmxvcmlkYTEWMBQGA1UEChMNTW90aGVy
IE5hdHVyZTAeFw0yMDEyMjMxMDQ0MjFaFw0yMTEyMjMxMDQ0MjFaMDcxCzAJBgNV
BAYTAlVTMRAwDgYDVQQIEwdGbG9yaWRhMRYwFAYDVQQKEw1Nb3RoZXIgTmF0dXJl
MIIBIjANBgkqhkiG9w0BAQEFAAOCAQ8AMIIBCgKCAQEAyV+jkZIbKdRC4L2gAUSe
koy8n4H8/nA4+iqlRbUwnuQkRc5PTH/DS18ujpeBHX5A3p44j05DHfddM3MrPZhm
jXa8QD+9p8fPmpsxZrAf9jxRv6uksHtICIhTz/Q7o3164tX6CtUoWaNKAnlDD0A/
5x2z5QDnl5q12fXW1kcSheYMeR590irBIOW9dWsIN4L6WOUdlKTL23QiQuwWQW1O
FD3kc/NACq5RNoBrLLtiAWtfM2MqpbP022GUKBrsU4jsAiIKyPyeF7LdY+hsO8iZ
PvQBic7M8j5zWbm9XIjZ4vzWB1EMc6PqBDL4llzTeqxTezW3B0vzp/yNxTUm3c01
kwIDAQABo0gwRjAOBgNVHQ8BAf8EBAMCBaAwEwYDVR0lBAwwCgYIKwYBBQUHAwEw
DAYDVR0TAQH/BAIwADARBgNVHREECjAIggZnb3YudXMwDQYJKoZIhvcNAQELBQAD
ggEBAK0H8v7P/FyEOTj8tqSZfAy6X8PV+9YE6XYfw5RIxZiItALMITjjGxqYJ+9y
lX6dGDQZEk7ljvhS7ZF1aDV10udIj3JXvjrfQ94mgYJKC0cLh2KzQQijxKgoGm04
Wp2B6+B61KCaqYwe6VeRn8WEY+vHcZj2PetA+6aZmj8qc30t6RRpwB02dLBZ+pGq
hJmOZzk7g43lRquN3fGjqtzl2THKjlrY9f4S6rps0X0kCscv5crYf6sN2CoG8S3O
w5wFyjsawKKCu4+B/emuCDHxSMu16fHoaz5/Fa7VlTpfwwONZFoAx/fxcC0FM+FR
7HjbgxHHdaUicVkbYEaZPFT53o8=
-----END CERTIFICATE-----
